Certificate:
    Data:
        Version: 3 (0x2)
        Serial Number: 3 (0x3)
        Signature Algorithm: ecdsa-with-SHA256
        Issuer: C=CZ, L=Prague, O=CZ.NIC, z.s.p.o., OU=Turris, CN=Sentinel Development CA 1
        Validity
            Not Before: May 21 16:19:19 2021 GMT
            Not After : May 16 16:19:19 2022 GMT
        Subject: CN=proxy
        Subject Public Key Info:
            Public Key Algorithm: id-ecPublicKey
                Public-Key: (256 bit)
                pub:
                    04:18:a5:f7:a9:49:ec:a0:aa:00:a8:3c:b3:62:83:
                    e8:d5:48:cb:ee:42:2b:95:d7:01:7b:82:b1:94:da:
                    7e:ca:2b:d0:a3:0d:80:ab:ac:30:91:0e:6a:16:50:
                    35:aa:0e:81:d3:61:98:33:e7:a2:7d:94:9e:3d:55:
                    17:15:6d:5c:f7
                ASN1 OID: prime256v1
                NIST CURVE: P-256
        X509v3 extensions:
            X509v3 Basic Constraints: critical
                CA:FALSE
            X509v3 Key Usage: 
                Digital Signature
            X509v3 Extended Key Usage: 
                TLS Web Client Authentication
            X509v3 Subject Key Identifier: 
                99:6F:CF:DB:7A:A1:8C:BD:B6:56:20:69:B2:BB:CD:1D:43:6A:BA:AB
            X509v3 Authority Key Identifier: 
                keyid:8E:D4:98:AA:3F:8D:0A:F4:2B:54:8D:64:31:9A:5E:11:49:59:0A:89

    Signature Algorithm: ecdsa-with-SHA256
         30:65:02:31:00:94:b2:b4:86:bd:cc:a8:a9:e3:97:70:fb:8b:
         55:42:6e:8b:36:43:f7:0e:12:16:19:c8:d6:5d:17:62:11:5e:
         6c:2e:cf:24:16:cf:86:83:28:67:f3:bc:26:9a:93:d5:4f:02:
         30:14:f4:45:95:1b:49:81:b5:58:50:17:d4:fa:f3:5e:8c:1d:
         a0:5c:17:ac:24:2d:54:d4:67:15:07:38:2d:b2:00:1e:7f:ad:
         86:3e:7d:5b:75:2e:5e:bf:06:23:77:3e:c2
-----BEGIN CERTIFICATE-----
MIIB/zCCAYWgAwIBAgIBAzAKBggqhkjOPQQDAjBuMQswCQYDVQQGEwJDWjEPMA0G
A1UEBwwGUHJhZ3VlMRkwFwYDVQQKDBBDWi5OSUMsIHoucy5wLm8uMQ8wDQYDVQQL
DAZUdXJyaXMxIjAgBgNVBAMMGVNlbnRpbmVsIERldmVsb3BtZW50IENBIDEwHhcN
MjEwNTIxMTYxOTE5WhcNMjIwNTE2MTYxOTE5WjAQMQ4wDAYDVQQDDAVwcm94eTBZ
MBMGByqGSM49AgEGCCqGSM49AwEHA0IABBil96lJ7KCqAKg8s2KD6NVIy+5CK5XX
AXuCsZTafsor0KMNgKusMJEOahZQNaoOgdNhmDPnon2Unj1VFxVtXPejcjBwMAwG
A1UdEwEB/wQCMAAwCwYDVR0PBAQDAgeAMBMGA1UdJQQMMAoGCCsGAQUFBwMCMB0G
A1UdDgQWBBSZb8/beqGMvbZWIGmyu80dQ2q6qzAfBgNVHSMEGDAWgBSO1JiqP40K
9CtUjWQxml4RSVkKiTAKBggqhkjOPQQDAgNoADBlAjEAlLK0hr3MqKnjl3D7i1VC
bos2Q/cOEhYZyNZdF2IRXmwuzyQWz4aDKGfzvCaak9VPAjAU9EWVG0mBtVhQF9T6
816MHaBcF6wkLVTUZxUHOC2yAB5/rYY+fVt1Ll6/BiN3PsI=
-----END CERTIFICATE-----
