Certificate:
    Data:
        Version: 3 (0x2)
        Serial Number: 3 (0x3)
        Signature Algorithm: ecdsa-with-SHA256
        Issuer: C=CZ, L=Prague, O=CZ.NIC, z.s.p.o., OU=Turris, CN=Sentinel Development CA 2
        Validity
            Not Before: May 21 16:25:47 2021 GMT
            Not After : May 16 16:25:47 2022 GMT
        Subject: CN=mosquitto.lan
        Subject Public Key Info:
            Public Key Algorithm: id-ecPublicKey
                Public-Key: (256 bit)
                pub:
                    04:5b:49:ba:8a:08:be:62:26:0f:7c:d5:c7:d7:49:
                    aa:b9:b6:6d:77:d3:bf:b3:2a:e6:50:ff:b4:1a:5d:
                    b4:3b:68:32:a7:66:cc:e2:60:56:09:2c:ef:a6:d2:
                    23:4c:45:d0:6f:5c:2f:35:de:31:72:5c:3d:fd:66:
                    cb:4d:7f:49:ce
                ASN1 OID: prime256v1
                NIST CURVE: P-256
        X509v3 extensions:
            X509v3 Basic Constraints: critical
                CA:FALSE
            X509v3 Key Usage: 
                Digital Signature
            X509v3 Extended Key Usage: 
                TLS Web Server Authentication
            X509v3 Subject Key Identifier: 
                63:79:6D:85:FF:1F:44:3B:87:45:61:C7:84:4B:BA:25:0A:2A:18:3C
            X509v3 Authority Key Identifier: 
                keyid:A1:83:28:8C:D7:CC:66:1D:E9:6E:64:04:72:33:9D:52:3B:C2:BF:15

    Signature Algorithm: ecdsa-with-SHA256
         30:64:02:30:38:23:23:a6:40:3a:0b:eb:aa:a1:be:19:11:94:
         67:b0:da:39:d2:cf:3f:be:fd:a9:03:94:dd:af:cd:43:d8:4c:
         25:ea:2a:45:71:60:6d:a2:31:5e:b0:fb:40:94:06:b1:02:30:
         08:02:66:b1:f3:89:a2:de:07:0d:8b:17:8d:31:29:fb:96:90:
         70:1d:04:7c:ee:88:03:68:71:8e:6a:03:ca:ca:5c:85:c9:d1:
         ea:f4:b0:3c:4c:27:f3:1b:12:a3:df:39
-----BEGIN CERTIFICATE-----
MIICBjCCAY2gAwIBAgIBAzAKBggqhkjOPQQDAjBuMQswCQYDVQQGEwJDWjEPMA0G
A1UEBwwGUHJhZ3VlMRkwFwYDVQQKDBBDWi5OSUMsIHoucy5wLm8uMQ8wDQYDVQQL
DAZUdXJyaXMxIjAgBgNVBAMMGVNlbnRpbmVsIERldmVsb3BtZW50IENBIDIwHhcN
MjEwNTIxMTYyNTQ3WhcNMjIwNTE2MTYyNTQ3WjAYMRYwFAYDVQQDDA1tb3NxdWl0
dG8ubGFuMFkwEwYHKoZIzj0CAQYIKoZIzj0DAQcDQgAEW0m6igi+YiYPfNXH10mq
ubZtd9O/syrmUP+0Gl20O2gyp2bM4mBWCSzvptIjTEXQb1wvNd4xclw9/WbLTX9J
zqNyMHAwDAYDVR0TAQH/BAIwADALBgNVHQ8EBAMCB4AwEwYDVR0lBAwwCgYIKwYB
BQUHAwEwHQYDVR0OBBYEFGN5bYX/H0Q7h0Vhx4RLuiUKKhg8MB8GA1UdIwQYMBaA
FKGDKIzXzGYd6W5kBHIznVI7wr8VMAoGCCqGSM49BAMCA2cAMGQCMDgjI6ZAOgvr
qqG+GRGUZ7DaOdLPP779qQOU3a/NQ9hMJeoqRXFgbaIxXrD7QJQGsQIwCAJmsfOJ
ot4HDYsXjTEp+5aQcB0EfO6IA2hxjmoDyspchcnR6vSwPEwn8xsSo985
-----END CERTIFICATE-----
