Certificate:
    Data:
        Version: 3 (0x2)
        Serial Number: 1 (0x1)
        Signature Algorithm: ecdsa-with-SHA256
        Issuer: C=CZ, L=Prague, O=CZ.NIC, z.s.p.o., OU=Turris, CN=Sentinel Development CA 1
        Validity
            Not Before: May 21 16:16:04 2021 GMT
            Not After : May 16 16:16:04 2022 GMT
        Subject: CN=mosquitto.lan
        Subject Public Key Info:
            Public Key Algorithm: id-ecPublicKey
                Public-Key: (256 bit)
                pub:
                    04:5b:49:ba:8a:08:be:62:26:0f:7c:d5:c7:d7:49:
                    aa:b9:b6:6d:77:d3:bf:b3:2a:e6:50:ff:b4:1a:5d:
                    b4:3b:68:32:a7:66:cc:e2:60:56:09:2c:ef:a6:d2:
                    23:4c:45:d0:6f:5c:2f:35:de:31:72:5c:3d:fd:66:
                    cb:4d:7f:49:ce
                ASN1 OID: prime256v1
                NIST CURVE: P-256
        X509v3 extensions:
            X509v3 Basic Constraints: critical
                CA:FALSE
            X509v3 Key Usage: 
                Digital Signature
            X509v3 Extended Key Usage: 
                TLS Web Server Authentication
            X509v3 Subject Key Identifier: 
                63:79:6D:85:FF:1F:44:3B:87:45:61:C7:84:4B:BA:25:0A:2A:18:3C
            X509v3 Authority Key Identifier: 
                keyid:8E:D4:98:AA:3F:8D:0A:F4:2B:54:8D:64:31:9A:5E:11:49:59:0A:89

    Signature Algorithm: ecdsa-with-SHA256
         30:65:02:30:3d:89:ec:a8:12:28:26:57:0f:29:95:23:98:2e:
         ce:bc:76:27:4a:97:96:60:56:d0:6f:08:37:e2:ce:0b:88:82:
         d5:c7:77:09:f0:1b:bb:66:e5:cd:53:35:01:03:49:35:02:31:
         00:e1:78:c7:64:90:a8:8b:a2:cf:bd:27:f2:e4:bf:1d:23:a5:
         52:ba:23:03:f2:c6:47:d3:1b:41:46:c5:ff:79:de:05:01:b2:
         3f:e9:54:95:72:19:00:59:bc:73:02:2f:79
-----BEGIN CERTIFICATE-----
MIICBzCCAY2gAwIBAgIBATAKBggqhkjOPQQDAjBuMQswCQYDVQQGEwJDWjEPMA0G
A1UEBwwGUHJhZ3VlMRkwFwYDVQQKDBBDWi5OSUMsIHoucy5wLm8uMQ8wDQYDVQQL
DAZUdXJyaXMxIjAgBgNVBAMMGVNlbnRpbmVsIERldmVsb3BtZW50IENBIDEwHhcN
MjEwNTIxMTYxNjA0WhcNMjIwNTE2MTYxNjA0WjAYMRYwFAYDVQQDDA1tb3NxdWl0
dG8ubGFuMFkwEwYHKoZIzj0CAQYIKoZIzj0DAQcDQgAEW0m6igi+YiYPfNXH10mq
ubZtd9O/syrmUP+0Gl20O2gyp2bM4mBWCSzvptIjTEXQb1wvNd4xclw9/WbLTX9J
zqNyMHAwDAYDVR0TAQH/BAIwADALBgNVHQ8EBAMCB4AwEwYDVR0lBAwwCgYIKwYB
BQUHAwEwHQYDVR0OBBYEFGN5bYX/H0Q7h0Vhx4RLuiUKKhg8MB8GA1UdIwQYMBaA
FI7UmKo/jQr0K1SNZDGaXhFJWQqJMAoGCCqGSM49BAMCA2gAMGUCMD2J7KgSKCZX
DymVI5guzrx2J0qXlmBW0G8IN+LOC4iC1cd3CfAbu2blzVM1AQNJNQIxAOF4x2SQ
qIuiz70n8uS/HSOlUrojA/LGR9MbQUbF/3neBQGyP+lUlXIZAFm8cwIveQ==
-----END CERTIFICATE-----
