Certificate:
    Data:
        Version: 3 (0x2)
        Serial Number: 1 (0x1)
        Signature Algorithm: ecdsa-with-SHA256
        Issuer: C=CZ, L=Prague, O=CZ.NIC, z.s.p.o., OU=Turris, CN=Sentinel Development CA 2
        Validity
            Not Before: May 21 16:25:06 2021 GMT
            Not After : May 16 16:25:06 2022 GMT
        Subject: CN=proxy
        Subject Public Key Info:
            Public Key Algorithm: id-ecPublicKey
                Public-Key: (256 bit)
                pub:
                    04:18:a5:f7:a9:49:ec:a0:aa:00:a8:3c:b3:62:83:
                    e8:d5:48:cb:ee:42:2b:95:d7:01:7b:82:b1:94:da:
                    7e:ca:2b:d0:a3:0d:80:ab:ac:30:91:0e:6a:16:50:
                    35:aa:0e:81:d3:61:98:33:e7:a2:7d:94:9e:3d:55:
                    17:15:6d:5c:f7
                ASN1 OID: prime256v1
                NIST CURVE: P-256
        X509v3 extensions:
            X509v3 Basic Constraints: critical
                CA:FALSE
            X509v3 Key Usage: 
                Digital Signature
            X509v3 Extended Key Usage: 
                TLS Web Client Authentication
            X509v3 Subject Key Identifier: 
                99:6F:CF:DB:7A:A1:8C:BD:B6:56:20:69:B2:BB:CD:1D:43:6A:BA:AB
            X509v3 Authority Key Identifier: 
                keyid:A1:83:28:8C:D7:CC:66:1D:E9:6E:64:04:72:33:9D:52:3B:C2:BF:15

    Signature Algorithm: ecdsa-with-SHA256
         30:66:02:31:00:87:c5:e5:d1:18:50:bb:aa:91:c1:6b:e9:e5:
         b7:e7:da:8e:3a:15:9e:7b:d1:3a:d2:08:d0:84:48:a4:0b:9d:
         3c:42:26:bf:d5:92:ba:ff:64:48:d8:77:8f:cb:54:e7:7c:02:
         31:00:e9:0d:ab:d9:3d:6b:54:9a:60:9e:a4:88:66:3c:a7:fc:
         30:fd:4a:77:63:c5:3d:f9:0d:89:63:4b:85:94:59:6b:a4:e7:
         49:48:fd:12:61:e8:fd:e3:2a:94:8d:6e:94:dd
-----BEGIN CERTIFICATE-----
MIICADCCAYWgAwIBAgIBATAKBggqhkjOPQQDAjBuMQswCQYDVQQGEwJDWjEPMA0G
A1UEBwwGUHJhZ3VlMRkwFwYDVQQKDBBDWi5OSUMsIHoucy5wLm8uMQ8wDQYDVQQL
DAZUdXJyaXMxIjAgBgNVBAMMGVNlbnRpbmVsIERldmVsb3BtZW50IENBIDIwHhcN
MjEwNTIxMTYyNTA2WhcNMjIwNTE2MTYyNTA2WjAQMQ4wDAYDVQQDDAVwcm94eTBZ
MBMGByqGSM49AgEGCCqGSM49AwEHA0IABBil96lJ7KCqAKg8s2KD6NVIy+5CK5XX
AXuCsZTafsor0KMNgKusMJEOahZQNaoOgdNhmDPnon2Unj1VFxVtXPejcjBwMAwG
A1UdEwEB/wQCMAAwCwYDVR0PBAQDAgeAMBMGA1UdJQQMMAoGCCsGAQUFBwMCMB0G
A1UdDgQWBBSZb8/beqGMvbZWIGmyu80dQ2q6qzAfBgNVHSMEGDAWgBShgyiM18xm
HeluZARyM51SO8K/FTAKBggqhkjOPQQDAgNpADBmAjEAh8Xl0RhQu6qRwWvp5bfn
2o46FZ570TrSCNCESKQLnTxCJr/Vkrr/ZEjYd4/LVOd8AjEA6Q2r2T1rVJpgnqSI
Zjyn/DD9SndjxT35DYljS4WUWWuk50lI/RJh6P3jKpSNbpTd
-----END CERTIFICATE-----
