Certificate:
    Data:
        Version: 3 (0x2)
        Serial Number: 2 (0x2)
        Signature Algorithm: ecdsa-with-SHA256
        Issuer: C=CZ, L=Prague, O=CZ.NIC, z.s.p.o., OU=Turris, CN=Sentinel Development CA 2
        Validity
            Not Before: May 21 16:25:29 2021 GMT
            Not After : May 16 16:25:29 2022 GMT
        Subject: CN=smash
        Subject Public Key Info:
            Public Key Algorithm: id-ecPublicKey
                Public-Key: (256 bit)
                pub:
                    04:d3:e8:de:28:b0:64:51:37:1e:f6:65:f6:06:55:
                    7a:27:5e:c4:7d:b4:56:93:7c:d1:34:60:a9:5a:b9:
                    27:65:5e:68:47:5d:f9:6c:d3:e4:47:4d:8e:ae:8d:
                    08:7d:78:7f:65:f4:47:22:22:13:93:f5:09:1a:eb:
                    a5:01:ab:98:d3
                ASN1 OID: prime256v1
                NIST CURVE: P-256
        X509v3 extensions:
            X509v3 Basic Constraints: critical
                CA:FALSE
            X509v3 Key Usage: 
                Digital Signature
            X509v3 Extended Key Usage: 
                TLS Web Client Authentication
            X509v3 Subject Key Identifier: 
                FE:B5:5C:BF:68:75:A4:6C:7E:88:0E:C8:77:96:8D:10:0D:9A:02:0D
            X509v3 Authority Key Identifier: 
                keyid:A1:83:28:8C:D7:CC:66:1D:E9:6E:64:04:72:33:9D:52:3B:C2:BF:15

    Signature Algorithm: ecdsa-with-SHA256
         30:64:02:30:37:f1:80:f1:d5:1b:e7:5a:ab:8c:5b:b5:4f:ce:
         d3:2a:34:08:e5:7e:ed:90:2a:43:ae:9e:4d:be:bc:33:e4:d3:
         07:15:0d:97:7b:99:4d:6f:f4:79:48:4d:25:ba:98:4b:02:30:
         1d:ed:66:98:30:bb:0b:11:be:1d:dc:ee:3c:db:dd:f1:83:86:
         10:ec:47:94:c6:9a:e2:b6:b8:af:54:28:dd:45:d1:99:d7:a9:
         59:74:c1:c9:f4:a6:5c:49:dc:f1:fc:3d
-----BEGIN CERTIFICATE-----
MIIB/jCCAYWgAwIBAgIBAjAKBggqhkjOPQQDAjBuMQswCQYDVQQGEwJDWjEPMA0G
A1UEBwwGUHJhZ3VlMRkwFwYDVQQKDBBDWi5OSUMsIHoucy5wLm8uMQ8wDQYDVQQL
DAZUdXJyaXMxIjAgBgNVBAMMGVNlbnRpbmVsIERldmVsb3BtZW50IENBIDIwHhcN
MjEwNTIxMTYyNTI5WhcNMjIwNTE2MTYyNTI5WjAQMQ4wDAYDVQQDDAVzbWFzaDBZ
MBMGByqGSM49AgEGCCqGSM49AwEHA0IABNPo3iiwZFE3HvZl9gZVeidexH20VpN8
0TRgqVq5J2VeaEdd+WzT5EdNjq6NCH14f2X0RyIiE5P1CRrrpQGrmNOjcjBwMAwG
A1UdEwEB/wQCMAAwCwYDVR0PBAQDAgeAMBMGA1UdJQQMMAoGCCsGAQUFBwMCMB0G
A1UdDgQWBBT+tVy/aHWkbH6IDsh3lo0QDZoCDTAfBgNVHSMEGDAWgBShgyiM18xm
HeluZARyM51SO8K/FTAKBggqhkjOPQQDAgNnADBkAjA38YDx1RvnWquMW7VPztMq
NAjlfu2QKkOunk2+vDPk0wcVDZd7mU1v9HlITSW6mEsCMB3tZpgwuwsRvh3c7jzb
3fGDhhDsR5TGmuK2uK9UKN1F0ZnXqVl0wcn0plxJ3PH8PQ==
-----END CERTIFICATE-----
