Certificate:
    Data:
        Version: 3 (0x2)
        Serial Number: 2 (0x2)
        Signature Algorithm: ecdsa-with-SHA256
        Issuer: C=CZ, L=Prague, O=CZ.NIC, z.s.p.o., OU=Turris, CN=Sentinel Development CA 1
        Validity
            Not Before: May 21 16:17:55 2021 GMT
            Not After : May 16 16:17:55 2022 GMT
        Subject: CN=smash
        Subject Public Key Info:
            Public Key Algorithm: id-ecPublicKey
                Public-Key: (256 bit)
                pub:
                    04:d3:e8:de:28:b0:64:51:37:1e:f6:65:f6:06:55:
                    7a:27:5e:c4:7d:b4:56:93:7c:d1:34:60:a9:5a:b9:
                    27:65:5e:68:47:5d:f9:6c:d3:e4:47:4d:8e:ae:8d:
                    08:7d:78:7f:65:f4:47:22:22:13:93:f5:09:1a:eb:
                    a5:01:ab:98:d3
                ASN1 OID: prime256v1
                NIST CURVE: P-256
        X509v3 extensions:
            X509v3 Basic Constraints: critical
                CA:FALSE
            X509v3 Key Usage: 
                Digital Signature
            X509v3 Extended Key Usage: 
                TLS Web Client Authentication
            X509v3 Subject Key Identifier: 
                FE:B5:5C:BF:68:75:A4:6C:7E:88:0E:C8:77:96:8D:10:0D:9A:02:0D
            X509v3 Authority Key Identifier: 
                keyid:8E:D4:98:AA:3F:8D:0A:F4:2B:54:8D:64:31:9A:5E:11:49:59:0A:89

    Signature Algorithm: ecdsa-with-SHA256
         30:64:02:30:5a:77:f3:29:cb:95:c0:54:6f:0c:e7:63:a2:2a:
         75:cd:39:fc:dc:5c:19:d0:70:c0:c6:8c:be:7b:68:8f:4e:0b:
         62:ba:05:e3:38:c8:0f:6b:08:94:c5:13:36:ef:80:16:02:30:
         7a:25:8c:51:c7:18:87:89:30:db:af:dd:79:a0:42:5a:8f:4e:
         a6:bc:b2:b1:69:79:39:bd:99:36:2a:c9:ad:e2:0c:37:28:81:
         be:16:c7:1d:05:4b:d3:c3:81:8f:43:7d
-----BEGIN CERTIFICATE-----
MIIB/jCCAYWgAwIBAgIBAjAKBggqhkjOPQQDAjBuMQswCQYDVQQGEwJDWjEPMA0G
A1UEBwwGUHJhZ3VlMRkwFwYDVQQKDBBDWi5OSUMsIHoucy5wLm8uMQ8wDQYDVQQL
DAZUdXJyaXMxIjAgBgNVBAMMGVNlbnRpbmVsIERldmVsb3BtZW50IENBIDEwHhcN
MjEwNTIxMTYxNzU1WhcNMjIwNTE2MTYxNzU1WjAQMQ4wDAYDVQQDDAVzbWFzaDBZ
MBMGByqGSM49AgEGCCqGSM49AwEHA0IABNPo3iiwZFE3HvZl9gZVeidexH20VpN8
0TRgqVq5J2VeaEdd+WzT5EdNjq6NCH14f2X0RyIiE5P1CRrrpQGrmNOjcjBwMAwG
A1UdEwEB/wQCMAAwCwYDVR0PBAQDAgeAMBMGA1UdJQQMMAoGCCsGAQUFBwMCMB0G
A1UdDgQWBBT+tVy/aHWkbH6IDsh3lo0QDZoCDTAfBgNVHSMEGDAWgBSO1JiqP40K
9CtUjWQxml4RSVkKiTAKBggqhkjOPQQDAgNnADBkAjBad/Mpy5XAVG8M52OiKnXN
OfzcXBnQcMDGjL57aI9OC2K6BeM4yA9rCJTFEzbvgBYCMHoljFHHGIeJMNuv3Xmg
QlqPTqa8srFpeTm9mTYqya3iDDcogb4Wxx0FS9PDgY9DfQ==
-----END CERTIFICATE-----
